; Function Attrs: mustprogress nounwind uwtable
define hidden void @_ZN4cvc58internal6theory5arith2nl15CoveringsSolverD0Ev(ptr noundef nonnull align 8 dereferenceable(192) initializes((0, 8)) %0) unnamed_addr #5 align 2 personality ptr @__gxx_personality_v0 {
  store ptr getelementptr inbounds nuw inrange(-16, 16) (i8, ptr @_ZTVN4cvc58internal6theory5arith2nl15CoveringsSolverE, i64 16), ptr %0, align 8, !tbaa !3
  %2 = getelementptr inbounds nuw i8, ptr %0, i64 48
  tail call void @_ZN4cvc58internal6theory5arith2nl20EqualitySubstitutionD2Ev(ptr noundef nonnull align 8 dereferenceable(144) %2) #20
  %3 = getelementptr inbounds nuw i8, ptr %0, i64 16
  %4 = load ptr, ptr %3, align 8, !tbaa !11
  %5 = load i64, ptr %4, align 8
  %6 = and i64 %5, 1152920405095219200
  %.not.i.i.i = icmp eq i64 %6, 1152920405095219200
  br i1 %.not.i.i.i, label %_ZN4cvc58internal6theory5arith2nl15CoveringsSolverD2Ev.exit, label %7, !prof !54

7:                                                ; preds = %1
  %8 = add i64 %5, 1152920405095219200
  %9 = and i64 %8, 1152920405095219200
  %10 = and i64 %5, -1152920405095219201
  %11 = or disjoint i64 %9, %10
  store i64 %11, ptr %4, align 8
  %12 = icmp eq i64 %9, 0
  br i1 %12, label %13, label %_ZN4cvc58internal6theory5arith2nl15CoveringsSolverD2Ev.exit, !prof !54

13:                                               ; preds = %7
  invoke void @_ZN4cvc58internal4expr9NodeValue15markForDeletionEv(ptr noundef nonnull align 8 dereferenceable(24) %4)
          to label %_ZN4cvc58internal6theory5arith2nl15CoveringsSolverD2Ev.exit unwind label %14

14:                                               ; preds = %13
  %15 = landingpad { ptr, i32 }
          catch ptr null
  %16 = extractvalue { ptr, i32 } %15, 0
  tail call void @__clang_call_terminate(ptr %16) #22
  unreachable

_ZN4cvc58internal6theory5arith2nl15CoveringsSolverD2Ev.exit: ; preds = %1, %7, %13
  tail call void @_ZdlPvm(ptr noundef nonnull %0, i64 noundef 192) #23
  ret void
}